target datalayout = "e-m:e-p270:32:32-p271:32:32-p272:64:64-i64:64-i128:128-f80:128-n8:16:32:64-S128"
target triple = "x86_64-pc-linux-gnu"

; Function Attrs: nounwind uwtable
define internal i32 @tng_compress_uncompress_vel_float(ptr noundef %0, ptr noundef %1) #0 {
  %3 = alloca ptr, align 8
  %4 = alloca ptr, align 8
  %5 = alloca i64, align 8
  %6 = alloca i64, align 8
  store ptr %0, ptr %3, align 8, !tbaa !12
  store ptr %1, ptr %4, align 8, !tbaa !33
  call void @llvm.lifetime.start.p0(i64 8, ptr %5) #7
  call void @llvm.lifetime.start.p0(i64 8, ptr %6) #7
  %7 = load ptr, ptr %3, align 8, !tbaa !12
  %8 = load ptr, ptr %4, align 8, !tbaa !33
  %9 = call i32 @tng_compress_uncompress_vel_gen(ptr noundef %7, ptr noundef null, ptr noundef %8, ptr noundef null, ptr noundef %5, ptr noundef %6)
  call void @llvm.lifetime.end.p0(i64 8, ptr %6) #7
  call void @llvm.lifetime.end.p0(i64 8, ptr %5) #7
  ret i32 %9
}

; Function Attrs: nounwind uwtable
define internal i32 @tng_compress_uncompress_pos_float(ptr noundef %0, ptr noundef %1) #0 {
  %3 = alloca ptr, align 8
  %4 = alloca ptr, align 8
  %5 = alloca i64, align 8
  %6 = alloca i64, align 8
  store ptr %0, ptr %3, align 8, !tbaa !12
  store ptr %1, ptr %4, align 8, !tbaa !33
  call void @llvm.lifetime.start.p0(i64 8, ptr %5) #7
  call void @llvm.lifetime.start.p0(i64 8, ptr %6) #7
  %7 = load ptr, ptr %3, align 8, !tbaa !12
  %8 = load ptr, ptr %4, align 8, !tbaa !33
  %9 = call i32 @tng_compress_uncompress_pos_gen(ptr noundef %7, ptr noundef null, ptr noundef %8, ptr noundef null, ptr noundef %5, ptr noundef %6)
  call void @llvm.lifetime.end.p0(i64 8, ptr %6) #7
  call void @llvm.lifetime.end.p0(i64 8, ptr %5) #7
  ret i32 %9
}

; Function Attrs: nounwind uwtable
define internal i64 @readbufferfix(ptr noundef %0, i32 noundef %1) #0 {
  %3 = alloca ptr, align 8
  %4 = alloca i32, align 4
  %5 = alloca i8, align 1
  %6 = alloca i32, align 4
  %7 = alloca i64, align 8
  %8 = alloca i32, align 4
  store ptr %0, ptr %3, align 8, !tbaa !12
  store i32 %1, ptr %4, align 4, !tbaa !8
  call void @llvm.lifetime.start.p0(i64 1, ptr %5) #7
  call void @llvm.lifetime.start.p0(i64 4, ptr %6) #7
  store i32 0, ptr %6, align 4, !tbaa !8
  call void @llvm.lifetime.start.p0(i64 8, ptr %7) #7
  store i64 0, ptr %7, align 8, !tbaa !10
  call void @llvm.lifetime.start.p0(i64 4, ptr %8) #7
  store i32 0, ptr %8, align 4, !tbaa !8
  br label %9

9:                                                ; preds = %26, %2
  %10 = load ptr, ptr %3, align 8, !tbaa !12
  %11 = load i32, ptr %8, align 4, !tbaa !8
  %12 = add nsw i32 %11, 1
  store i32 %12, ptr %8, align 4, !tbaa !8
  %13 = sext i32 %11 to i64
  %14 = getelementptr inbounds i8, ptr %10, i64 %13
  %15 = load i8, ptr %14, align 1, !tbaa !40
  store i8 %15, ptr %5, align 1, !tbaa !40
  %16 = load i8, ptr %5, align 1, !tbaa !40
  %17 = zext i8 %16 to i64
  %18 = and i64 %17, 255
  %19 = load i32, ptr %6, align 4, !tbaa !8
  %20 = zext i32 %19 to i64
  %21 = shl i64 %18, %20
  %22 = load i64, ptr %7, align 8, !tbaa !10
  %23 = or i64 %22, %21
  store i64 %23, ptr %7, align 8, !tbaa !10
  %24 = load i32, ptr %6, align 4, !tbaa !8
  %25 = add nsw i32 %24, 8
  store i32 %25, ptr %6, align 4, !tbaa !8
  br label %26

26:                                               ; preds = %9
  %27 = load i32, ptr %4, align 4, !tbaa !8
  %28 = add nsw i32 %27, -1
  store i32 %28, ptr %4, align 4, !tbaa !8
  %29 = icmp ne i32 %28, 0
  br i1 %29, label %9, label %30, !llvm.loop !41

30:                                               ; preds = %26
  %31 = load i64, ptr %7, align 8, !tbaa !10
  call void @llvm.lifetime.end.p0(i64 4, ptr %8) #7
  call void @llvm.lifetime.end.p0(i64 8, ptr %7) #7
  call void @llvm.lifetime.end.p0(i64 4, ptr %6) #7
  call void @llvm.lifetime.end.p0(i64 1, ptr %5) #7
  ret i64 %31
}

; Function Attrs: nounwind uwtable
define i32 @tng_compress_uncompress_float(ptr noundef %0, ptr noundef %1) #0 {
  %3 = alloca i32, align 4
  %4 = alloca ptr, align 8
  %5 = alloca ptr, align 8
  %6 = alloca i32, align 4
  %7 = alloca i32, align 4
  store ptr %0, ptr %4, align 8, !tbaa !12
  store ptr %1, ptr %5, align 8, !tbaa !33
  call void @llvm.lifetime.start.p0(i64 4, ptr %6) #7
  %8 = load ptr, ptr %4, align 8, !tbaa !12
  %9 = call i64 @readbufferfix(ptr noundef %8, i32 noundef 4)
  %10 = trunc i64 %9 to i32
  store i32 %10, ptr %6, align 4, !tbaa !8
  %11 = load i32, ptr %6, align 4, !tbaa !8
  %12 = icmp eq i32 %11, 1346850388
  br i1 %12, label %13, label %17

13:                                               ; preds = %2
  %14 = load ptr, ptr %4, align 8, !tbaa !12
  %15 = load ptr, ptr %5, align 8, !tbaa !33
  %16 = call i32 @tng_compress_uncompress_pos_float(ptr noundef %14, ptr noundef %15)
  store i32 %16, ptr %3, align 4
  store i32 1, ptr %7, align 4
  br label %25

17:                                               ; preds = %2
  %18 = load i32, ptr %6, align 4, !tbaa !8
  %19 = icmp eq i32 %18, 1447513684
  br i1 %19, label %20, label %24

20:                                               ; preds = %17
  %21 = load ptr, ptr %4, align 8, !tbaa !12
  %22 = load ptr, ptr %5, align 8, !tbaa !33
  %23 = call i32 @tng_compress_uncompress_vel_float(ptr noundef %21, ptr noundef %22)
  store i32 %23, ptr %3, align 4
  store i32 1, ptr %7, align 4
  br label %25

24:                                               ; preds = %17
  store i32 1, ptr %3, align 4
  store i32 1, ptr %7, align 4
  br label %25

25:                                               ; preds = %24, %20, %13
  call void @llvm.lifetime.end.p0(i64 4, ptr %6) #7
  %26 = load i32, ptr %3, align 4
  ret i32 %26
}