; Function Attrs: nounwind uwtable
define i32 @tng_compress_uncompress_float(ptr noundef %0, ptr noundef %1) local_unnamed_addr #0 {
  %3 = alloca i64, align 8
  %4 = alloca i64, align 8
  %5 = alloca i64, align 8
  %6 = alloca i64, align 8
  br label %7

7:                                                ; preds = %7, %2
  %indvars.iv10.i = phi i64 [ %indvars.iv.next11.i, %7 ], [ 0, %2 ]
  %indvars.iv.i = phi i64 [ %indvars.iv.next.i, %7 ], [ 0, %2 ]
  %.09.i = phi i32 [ %13, %7 ], [ 4, %2 ]
  %.07.i = phi i64 [ %12, %7 ], [ 0, %2 ]
  %indvars.iv.next11.i = add nuw nsw i64 %indvars.iv10.i, 1
  %8 = getelementptr inbounds nuw i8, ptr %0, i64 %indvars.iv10.i
  %9 = load i8, ptr %8, align 1, !tbaa !16
  %10 = zext i8 %9 to i64
  %11 = shl i64 %10, %indvars.iv.i
  %12 = or i64 %11, %.07.i
  %indvars.iv.next.i = add nuw nsw i64 %indvars.iv.i, 8
  %13 = add nsw i32 %.09.i, -1
  %.not.i = icmp eq i32 %13, 0
  br i1 %.not.i, label %readbufferfix.exit, label %7, !llvm.loop !36

readbufferfix.exit:                               ; preds = %7
  %14 = trunc i64 %12 to i32
  switch i32 %14, label %19 [
    i32 1346850388, label %15
    i32 1447513684, label %17
  ]

15:                                               ; preds = %readbufferfix.exit
  call void @llvm.lifetime.start.p0(i64 8, ptr nonnull %5) #13
  call void @llvm.lifetime.start.p0(i64 8, ptr nonnull %6) #13
  %16 = call fastcc i32 @tng_compress_uncompress_pos_gen(ptr noundef nonnull %0, ptr noundef null, ptr noundef %1, ptr noundef null, ptr noundef nonnull %5, ptr noundef nonnull %6)
  call void @llvm.lifetime.end.p0(i64 8, ptr nonnull %6) #13
  call void @llvm.lifetime.end.p0(i64 8, ptr nonnull %5) #13
  br label %19

17:                                               ; preds = %readbufferfix.exit
  call void @llvm.lifetime.start.p0(i64 8, ptr nonnull %3) #13
  call void @llvm.lifetime.start.p0(i64 8, ptr nonnull %4) #13
  %18 = call fastcc i32 @tng_compress_uncompress_vel_gen(ptr noundef nonnull %0, ptr noundef null, ptr noundef %1, ptr noundef null, ptr noundef nonnull %3, ptr noundef nonnull %4)
  call void @llvm.lifetime.end.p0(i64 8, ptr nonnull %4) #13
  call void @llvm.lifetime.end.p0(i64 8, ptr nonnull %3) #13
  br label %19

19:                                               ; preds = %readbufferfix.exit, %17, %15
  %.0 = phi i32 [ %16, %15 ], [ %18, %17 ], [ 1, %readbufferfix.exit ]
  ret i32 %.0
}